target datalayout = "e-m:e-p270:32:32-p271:32:32-p272:64:64-i64:64-i128:128-f80:128-n8:16:32:64-S128"
target triple = "x86_64-pc-linux-gnu"

%union.pthread_mutex_t = type { %struct.__pthread_mutex_s }
%struct.__pthread_mutex_s = type { i32, i32, i32, i32, i32, i16, i16, %struct.__pthread_internal_list }
%struct.__pthread_internal_list = type { ptr, ptr }
%struct.list = type { ptr, ptr, ptr, ptr, ptr, i64 }
%struct.listNode = type { ptr, ptr, ptr }
%struct.bio_comp_item = type { ptr, i64, ptr }

@bio_comp_list = internal global ptr null, align 8
@bio_mutex_comp = internal global %union.pthread_mutex_t zeroinitializer, align 8

; Function Attrs: nounwind uwtable
define dso_local void @bioPipeReadJobCompList(ptr noundef %0, i32 noundef %1, ptr noundef %2, i32 noundef %3) #0 {
  %5 = alloca ptr, align 8
  %6 = alloca i32, align 4
  %7 = alloca ptr, align 8
  %8 = alloca i32, align 4
  %9 = alloca [128 x i8], align 16
  %10 = alloca ptr, align 8
  %11 = alloca i32, align 4
  %12 = alloca ptr, align 8
  %13 = alloca ptr, align 8
  store ptr %0, ptr %5, align 8, !tbaa !47
  store i32 %1, ptr %6, align 4, !tbaa !42
  store ptr %2, ptr %7, align 8, !tbaa !45
  store i32 %3, ptr %8, align 4, !tbaa !42
  call void @llvm.lifetime.start.p0(i64 128, ptr %9) #9
  call void @llvm.lifetime.start.p0(i64 8, ptr %10) #9
  store ptr null, ptr %10, align 8, !tbaa !9
  br label %14

14:                                               ; preds = %19, %4
  %15 = load i32, ptr %6, align 4, !tbaa !42
  %16 = getelementptr inbounds [128 x i8], ptr %9, i64 0, i64 0
  %17 = call i64 @read(i32 noundef %15, ptr noundef %16, i64 noundef 128)
  %18 = icmp eq i64 %17, 128
  br i1 %18, label %19, label %20

19:                                               ; preds = %14
  br label %14, !llvm.loop !48

20:                                               ; preds = %14
  %21 = call i32 @pthread_mutex_lock(ptr noundef @bio_mutex_comp) #9
  %22 = load ptr, ptr @bio_comp_list, align 8, !tbaa !9
  %23 = getelementptr inbounds nuw %struct.list, ptr %22, i32 0, i32 5
  %24 = load i64, ptr %23, align 8, !tbaa !49
  %25 = icmp ne i64 %24, 0
  br i1 %25, label %26, label %29

26:                                               ; preds = %20
  %27 = load ptr, ptr @bio_comp_list, align 8, !tbaa !9
  store ptr %27, ptr %10, align 8, !tbaa !9
  %28 = call ptr @listCreate()
  store ptr %28, ptr @bio_comp_list, align 8, !tbaa !9
  br label %29

29:                                               ; preds = %26, %20
  %30 = call i32 @pthread_mutex_unlock(ptr noundef @bio_mutex_comp) #9
  %31 = load ptr, ptr %10, align 8, !tbaa !9
  %32 = icmp ne ptr %31, null
  br i1 %32, label %34, label %33

33:                                               ; preds = %29
  store i32 1, ptr %11, align 4
  br label %61

34:                                               ; preds = %29
  br label %35

35:                                               ; preds = %40, %34
  %36 = load ptr, ptr %10, align 8, !tbaa !9
  %37 = getelementptr inbounds nuw %struct.list, ptr %36, i32 0, i32 5
  %38 = load i64, ptr %37, align 8, !tbaa !49
  %39 = icmp ne i64 %38, 0
  br i1 %39, label %40, label %59

40:                                               ; preds = %35
  call void @llvm.lifetime.start.p0(i64 8, ptr %12) #9
  %41 = load ptr, ptr %10, align 8, !tbaa !9
  %42 = getelementptr inbounds nuw %struct.list, ptr %41, i32 0, i32 0
  %43 = load ptr, ptr %42, align 8, !tbaa !52
  store ptr %43, ptr %12, align 8, !tbaa !53
  call void @llvm.lifetime.start.p0(i64 8, ptr %13) #9
  %44 = load ptr, ptr %12, align 8, !tbaa !53
  %45 = getelementptr inbounds nuw %struct.listNode, ptr %44, i32 0, i32 2
  %46 = load ptr, ptr %45, align 8, !tbaa !54
  store ptr %46, ptr %13, align 8, !tbaa !56
  %47 = load ptr, ptr %10, align 8, !tbaa !9
  %48 = load ptr, ptr %12, align 8, !tbaa !53
  call void @listDelNode(ptr noundef %47, ptr noundef %48)
  %49 = load ptr, ptr %13, align 8, !tbaa !56
  %50 = getelementptr inbounds nuw %struct.bio_comp_item, ptr %49, i32 0, i32 0
  %51 = load ptr, ptr %50, align 8, !tbaa !58
  %52 = load ptr, ptr %13, align 8, !tbaa !56
  %53 = getelementptr inbounds nuw %struct.bio_comp_item, ptr %52, i32 0, i32 1
  %54 = load i64, ptr %53, align 8, !tbaa !60
  %55 = load ptr, ptr %13, align 8, !tbaa !56
  %56 = getelementptr inbounds nuw %struct.bio_comp_item, ptr %55, i32 0, i32 2
  %57 = load ptr, ptr %56, align 8, !tbaa !61
  call void %51(i64 noundef %54, ptr noundef %57)
  %58 = load ptr, ptr %13, align 8, !tbaa !56
  call void @zfree(ptr noundef %58)
  call void @llvm.lifetime.end.p0(i64 8, ptr %13) #9
  call void @llvm.lifetime.end.p0(i64 8, ptr %12) #9
  br label %35, !llvm.loop !62

59:                                               ; preds = %35
  %60 = load ptr, ptr %10, align 8, !tbaa !9
  call void @listRelease(ptr noundef %60)
  store i32 0, ptr %11, align 4
  br label %61

61:                                               ; preds = %59, %33
  call void @llvm.lifetime.end.p0(i64 8, ptr %10) #9
  call void @llvm.lifetime.end.p0(i64 128, ptr %9) #9
  %62 = load i32, ptr %11, align 4
  switch i32 %62, label %64 [
    i32 0, label %63
    i32 1, label %63
  ]

63:                                               ; preds = %61, %61
  ret void

64:                                               ; preds = %61
  unreachable
}