; Function Attrs: nounwind uwtable
define dso_local void @bioPipeReadJobCompList(ptr readnone captures(none) %0, i32 noundef %1, ptr readnone captures(none) %2, i32 %3) #0 {
  %5 = alloca [128 x i8], align 16
  call void @llvm.lifetime.start.p0(i64 128, ptr nonnull %5) #11
  br label %6

6:                                                ; preds = %6, %4
  %7 = call i64 @read(i32 noundef %1, ptr noundef nonnull %5, i64 noundef 128) #11
  %8 = icmp eq i64 %7, 128
  br i1 %8, label %6, label %9, !llvm.loop !46

9:                                                ; preds = %6
  %10 = tail call i32 @pthread_mutex_lock(ptr noundef nonnull @bio_mutex_comp) #11
  %11 = load ptr, ptr @bio_comp_list, align 8, !tbaa !5
  %12 = getelementptr inbounds nuw i8, ptr %11, i64 40
  %13 = load i64, ptr %12, align 8, !tbaa !47
  %.not = icmp eq i64 %13, 0
  br i1 %.not, label %.thread, label %15

.thread:                                          ; preds = %9
  %14 = tail call i32 @pthread_mutex_unlock(ptr noundef nonnull @bio_mutex_comp) #11
  br label %28

15:                                               ; preds = %9
  %16 = tail call ptr @listCreate() #11
  store ptr %16, ptr @bio_comp_list, align 8, !tbaa !5
  %17 = tail call i32 @pthread_mutex_unlock(ptr noundef nonnull @bio_mutex_comp) #11
  %18 = load i64, ptr %12, align 8, !tbaa !47
  %.not1215 = icmp eq i64 %18, 0
  br i1 %.not1215, label %._crit_edge, label %.lr.ph

.lr.ph:                                           ; preds = %15, %.lr.ph
  %19 = load ptr, ptr %11, align 8, !tbaa !50
  %20 = getelementptr inbounds nuw i8, ptr %19, i64 16
  %21 = load ptr, ptr %20, align 8, !tbaa !51
  tail call void @listDelNode(ptr noundef nonnull %11, ptr noundef %19) #11
  %22 = load ptr, ptr %21, align 8, !tbaa !53
  %23 = getelementptr inbounds nuw i8, ptr %21, i64 8
  %24 = load i64, ptr %23, align 8, !tbaa !55
  %25 = getelementptr inbounds nuw i8, ptr %21, i64 16
  %26 = load ptr, ptr %25, align 8, !tbaa !56
  tail call void %22(i64 noundef %24, ptr noundef %26) #11
  tail call void @zfree(ptr noundef nonnull %21) #11
  %27 = load i64, ptr %12, align 8, !tbaa !47
  %.not12 = icmp eq i64 %27, 0
  br i1 %.not12, label %._crit_edge, label %.lr.ph, !llvm.loop !57

._crit_edge:                                      ; preds = %.lr.ph, %15
  tail call void @listRelease(ptr noundef nonnull %11) #11
  br label %28

28:                                               ; preds = %.thread, %._crit_edge
  call void @llvm.lifetime.end.p0(i64 128, ptr nonnull %5) #11
  ret void
}